; Function Attrs: mustprogress uwtable
define void @_ZN8device_t15handle_identifyE9command_t(ptr noundef nonnull align 8 dereferenceable(56) %0, ptr noundef %1) #3 align 2 {
  %3 = alloca i64, align 8
  %4 = alloca [64 x i8], align 16
  %5 = getelementptr inbounds i8, ptr %1, i64 8
  %6 = load i64, ptr %5, align 8
  %7 = and i64 %6, 255
  call void @llvm.memset.p0.i64(ptr noundef nonnull align 16 dereferenceable(64) %4, i8 0, i64 64, i1 false)
  %8 = icmp eq i64 %7, 255
  br i1 %8, label %9, label %14

9:                                                ; preds = %2
  %10 = load ptr, ptr %0, align 8
  %11 = getelementptr inbounds i8, ptr %10, i64 16
  %12 = load ptr, ptr %11, align 8
  %13 = tail call noundef ptr %12(ptr noundef nonnull align 8 dereferenceable(56) %0)
  br label %19

14:                                               ; preds = %2
  %15 = getelementptr inbounds i8, ptr %0, i64 32
  %16 = load ptr, ptr %15, align 8
  %17 = getelementptr inbounds %"class.std::__cxx11::basic_string", ptr %16, i64 %7
  %18 = load ptr, ptr %17, align 8
  br label %19

19:                                               ; preds = %14, %9
  %.sink = phi ptr [ %18, %14 ], [ %13, %9 ]
  %20 = call ptr @strcpy(ptr noundef nonnull dereferenceable(1) %4, ptr noundef nonnull dereferenceable(1) %.sink) #23
  %21 = lshr i64 %6, 8
  %22 = and i64 %21, 1099511627775
  %23 = load ptr, ptr %1, align 8
  %24 = load ptr, ptr %23, align 8
  %25 = getelementptr inbounds i8, ptr %24, i64 24
  %26 = load ptr, ptr %25, align 8
  call void %26(ptr noundef nonnull align 8 dereferenceable(16) %23, i64 noundef %22, i64 noundef 64, ptr noundef nonnull %4)
  %27 = load i64, ptr %5, align 8
  %28 = and i64 %27, -281474976710656
  %29 = or disjoint i64 %28, 1
  call void @llvm.lifetime.start.p0(i64 8, ptr nonnull %3)
  store i64 %29, ptr %3, align 8
  %30 = getelementptr inbounds i8, ptr %1, i64 32
  %31 = load ptr, ptr %30, align 8
  %.not.i.i.i = icmp eq ptr %31, null
  br i1 %.not.i.i.i, label %32, label %_ZN9command_t7respondEm.exit

32:                                               ; preds = %19
  call void @_ZSt25__throw_bad_function_callv() #25
  unreachable

_ZN9command_t7respondEm.exit:                     ; preds = %19
  %33 = getelementptr inbounds i8, ptr %1, i64 16
  %34 = getelementptr inbounds i8, ptr %1, i64 40
  %35 = load ptr, ptr %34, align 8
  call void %35(ptr noundef nonnull align 8 dereferenceable(16) %33, ptr noundef nonnull align 8 dereferenceable(8) %3)
  call void @llvm.lifetime.end.p0(i64 8, ptr nonnull %3)
  ret void
}